#include <math.h>
#include <stdio.h>
#include <stdlib.h>
#include <string.h>



int main()
{
    int n,k,i,j;
    scanf("%d%d",&n,&k);
    int*num=(int*)malloc(n*sizeof(int));

    for(i=0;i<n;i++)scanf("%d",num+i);
    for(i=0;i<=n/2;i++)
        for(j=0;j<n;j++)
      {if(*(num+i)+*(num+j)==k)   {printf("yes\n");return 0;}
      else continue;}
      printf("no\n");
      return 0;


}
