; ModuleID = 'source-C-CXX/2/2779.c'
source_filename = "source-C-CXX/2/2779.c"
target datalayout = "e-m:e-p270:32:32-p271:32:32-p272:64:64-i64:64-f80:128-n8:16:32:64-S128"
target triple = "x86_64-pc-linux-gnu"

@.str = private unnamed_addr constant [5 x i8] c"%d%d\00", align 1
@.str.1 = private unnamed_addr constant [3 x i8] c"%d\00", align 1
@str = private unnamed_addr constant [3 x i8] c"no\00", align 1
@str.4 = private unnamed_addr constant [4 x i8] c"yes\00", align 1

; Function Attrs: nofree nounwind sspstrong uwtable
define dso_local i32 @main() local_unnamed_addr #0 {
  %1 = alloca i32, align 4
  %2 = alloca i32, align 4
  %3 = bitcast i32* %1 to i8*
  call void @llvm.lifetime.start.p0i8(i64 4, i8* nonnull %3) #5
  %4 = bitcast i32* %2 to i8*
  call void @llvm.lifetime.start.p0i8(i64 4, i8* nonnull %4) #5
  %5 = call i32 (i8*, ...) @__isoc99_scanf(i8* getelementptr inbounds ([5 x i8], [5 x i8]* @.str, i64 0, i64 0), i32* nonnull %1, i32* nonnull %2)
  %6 = load i32, i32* %1, align 4, !tbaa !5
  %7 = sext i32 %6 to i64
  %8 = shl nsw i64 %7, 2
  %9 = call noalias align 16 i8* @malloc(i64 %8) #5
  %10 = bitcast i8* %9 to i32*
  %11 = icmp sgt i32 %6, 0
  br i1 %11, label %37, label %12

12:                                               ; preds = %37, %0
  %13 = phi i32 [ %6, %0 ], [ %42, %37 ]
  %14 = load i32, i32* %2, align 4
  %15 = icmp sgt i32 %13, 0
  br i1 %15, label %16, label %45

16:                                               ; preds = %12
  %17 = sdiv i32 %13, 2
  %18 = add nsw i32 %17, 1
  %19 = zext i32 %18 to i64
  %20 = zext i32 %13 to i64
  br label %21

21:                                               ; preds = %16, %34
  %22 = phi i64 [ 0, %16 ], [ %35, %34 ]
  %23 = getelementptr inbounds i32, i32* %10, i64 %22
  %24 = load i32, i32* %23, align 4, !tbaa !5
  br label %27

25:                                               ; preds = %27
  %26 = icmp eq i64 %33, %20
  br i1 %26, label %34, label %27, !llvm.loop !9

27:                                               ; preds = %21, %25
  %28 = phi i64 [ 0, %21 ], [ %33, %25 ]
  %29 = getelementptr inbounds i32, i32* %10, i64 %28
  %30 = load i32, i32* %29, align 4, !tbaa !5
  %31 = add nsw i32 %30, %24
  %32 = icmp eq i32 %31, %14
  %33 = add nuw nsw i64 %28, 1
  br i1 %32, label %45, label %25

34:                                               ; preds = %25
  %35 = add nuw nsw i64 %22, 1
  %36 = icmp eq i64 %35, %19
  br i1 %36, label %45, label %21, !llvm.loop !11

37:                                               ; preds = %0, %37
  %38 = phi i64 [ %41, %37 ], [ 0, %0 ]
  %39 = getelementptr inbounds i32, i32* %10, i64 %38
  %40 = call i32 (i8*, ...) @__isoc99_scanf(i8* getelementptr inbounds ([3 x i8], [3 x i8]* @.str.1, i64 0, i64 0), i32* %39)
  %41 = add nuw nsw i64 %38, 1
  %42 = load i32, i32* %1, align 4, !tbaa !5
  %43 = sext i32 %42 to i64
  %44 = icmp slt i64 %41, %43
  br i1 %44, label %37, label %12, !llvm.loop !12

45:                                               ; preds = %34, %27, %12
  %46 = phi i8* [ getelementptr inbounds ([3 x i8], [3 x i8]* @str, i64 0, i64 0), %12 ], [ getelementptr inbounds ([4 x i8], [4 x i8]* @str.4, i64 0, i64 0), %27 ], [ getelementptr inbounds ([3 x i8], [3 x i8]* @str, i64 0, i64 0), %34 ]
  %47 = call i32 @puts(i8* nonnull dereferenceable(1) %46)
  call void @llvm.lifetime.end.p0i8(i64 4, i8* nonnull %4) #5
  call void @llvm.lifetime.end.p0i8(i64 4, i8* nonnull %3) #5
  ret i32 0
}

; Function Attrs: argmemonly mustprogress nofree nosync nounwind willreturn
declare void @llvm.lifetime.start.p0i8(i64 immarg, i8* nocapture) #1

; Function Attrs: nofree nounwind
declare noundef i32 @__isoc99_scanf(i8* nocapture noundef readonly, ...) local_unnamed_addr #2

; Function Attrs: inaccessiblememonly mustprogress nofree nounwind willreturn
declare noalias noundef align 16 i8* @malloc(i64 noundef) local_unnamed_addr #3

; Function Attrs: argmemonly mustprogress nofree nosync nounwind willreturn
declare void @llvm.lifetime.end.p0i8(i64 immarg, i8* nocapture) #1

; Function Attrs: nofree nounwind
declare noundef i32 @puts(i8* nocapture noundef readonly) local_unnamed_addr #4


!llvm.module.flags = !{!0, !1, !2, !3}
!llvm.ident = !{!4}

!0 = !{i32 1, !"wchar_size", i32 4}
!1 = !{i32 7, !"PIC Level", i32 2}
!2 = !{i32 7, !"PIE Level", i32 2}
!3 = !{i32 7, !"uwtable", i32 1}
!4 = !{!"clang version 13.0.0"}
!5 = !{!6, !6, i64 0}
!6 = !{!"int", !7, i64 0}
!7 = !{!"omnipotent char", !8, i64 0}
!8 = !{!"Simple C/C++ TBAA"}
!9 = distinct !{!9, !10}
!10 = !{!"llvm.loop.mustprogress"}
!11 = distinct !{!11, !10}
!12 = distinct !{!12, !10}
